target datalayout = "e-m:e-p270:32:32-p271:32:32-p272:64:64-i64:64-i128:128-f80:128-n8:16:32:64-S128"
target triple = "x86_64-pc-linux-gnu"

%struct.strvec = type { ptr, i64, i64 }

@__const.cmd_upload_archive_writer.sent_argv = private unnamed_addr constant %struct.strvec { ptr @empty_strvec, i64 0, i64 0 }, align 8
@.str = private unnamed_addr constant [10 x i8] c"argument \00", align 1
@upload_archive_usage = internal constant [32 x i8] c"git upload-archive <repository>\00", align 16
@.str.1 = private unnamed_addr constant [44 x i8] c"'%s' does not appear to be a git repository\00", align 1
@.str.2 = private unnamed_addr constant [19 x i8] c"git-upload-archive\00", align 1
@.str.3 = private unnamed_addr constant [23 x i8] c"Too many options (>%d)\00", align 1
@.str.4 = private unnamed_addr constant [35 x i8] c"'argument' token or flush expected\00", align 1
@the_repository = external global ptr, align 8

; Function Attrs: nounwind uwtable
define dso_local i32 @cmd_upload_archive_writer(i32 noundef %0, ptr noundef %1, ptr noundef %2, ptr noundef %3) #0 {
  %5 = alloca i32, align 4
  %6 = alloca ptr, align 8
  %7 = alloca ptr, align 8
  %8 = alloca ptr, align 8
  %9 = alloca %struct.strvec, align 8
  %10 = alloca ptr, align 8
  %11 = alloca i32, align 4
  %12 = alloca ptr, align 8
  %13 = alloca i32, align 4
  store i32 %0, ptr %5, align 4, !tbaa !4
  store ptr %1, ptr %6, align 8, !tbaa !8
  store ptr %2, ptr %7, align 8, !tbaa !11
  store ptr %3, ptr %8, align 8, !tbaa !13
  call void @llvm.lifetime.start.p0(i64 24, ptr %9) #10
  call void @llvm.memcpy.p0.p0.i64(ptr align 8 %9, ptr align 8 @__const.cmd_upload_archive_writer.sent_argv, i64 24, i1 false)
  call void @llvm.lifetime.start.p0(i64 8, ptr %10) #10
  store ptr @.str, ptr %10, align 8, !tbaa !11
  call void @llvm.lifetime.start.p0(i64 4, ptr %11) #10
  %14 = load i32, ptr %5, align 4, !tbaa !4
  %15 = load ptr, ptr %6, align 8, !tbaa !8
  call void @show_usage_if_asked(i32 noundef %14, ptr noundef %15, ptr noundef @upload_archive_usage)
  %16 = load i32, ptr %5, align 4, !tbaa !4
  %17 = icmp ne i32 %16, 2
  br i1 %17, label %18, label %19

18:                                               ; preds = %4
  call void @usage(ptr noundef @upload_archive_usage) #11
  unreachable

19:                                               ; preds = %4
  %20 = load ptr, ptr %6, align 8, !tbaa !8
  %21 = getelementptr inbounds ptr, ptr %20, i64 1
  %22 = load ptr, ptr %21, align 8, !tbaa !11
  %23 = call ptr @enter_repo(ptr noundef %22, i32 noundef 0)
  %24 = icmp ne ptr %23, null
  br i1 %24, label %29, label %25

25:                                               ; preds = %19
  %26 = load ptr, ptr %6, align 8, !tbaa !8
  %27 = getelementptr inbounds ptr, ptr %26, i64 1
  %28 = load ptr, ptr %27, align 8, !tbaa !11
  call void (ptr, ...) @die(ptr noundef @.str.1, ptr noundef %28) #11
  unreachable

29:                                               ; preds = %19
  call void @init_archivers()
  %30 = call ptr @strvec_push(ptr noundef %9, ptr noundef @.str.2)
  br label %31

31:                                               ; preds = %55, %29
  call void @llvm.lifetime.start.p0(i64 8, ptr %12) #10
  %32 = call ptr @packet_read_line(i32 noundef 0, ptr noundef null)
  store ptr %32, ptr %12, align 8, !tbaa !11
  %33 = load ptr, ptr %12, align 8, !tbaa !11
  %34 = icmp ne ptr %33, null
  br i1 %34, label %36, label %35

35:                                               ; preds = %31
  store i32 2, ptr %13, align 4
  br label %53

36:                                               ; preds = %31
  %37 = getelementptr inbounds nuw %struct.strvec, ptr %9, i32 0, i32 1
  %38 = load i64, ptr %37, align 8, !tbaa !15
  %39 = icmp ugt i64 %38, 64
  br i1 %39, label %40, label %41

40:                                               ; preds = %36
  call void (ptr, ...) @die(ptr noundef @.str.3, i32 noundef 63) #11
  unreachable

41:                                               ; preds = %36
  %42 = load ptr, ptr %12, align 8, !tbaa !11
  %43 = load ptr, ptr %10, align 8, !tbaa !11
  %44 = call i32 @starts_with(ptr noundef %42, ptr noundef %43)
  %45 = icmp ne i32 %44, 0
  br i1 %45, label %47, label %46

46:                                               ; preds = %41
  call void (ptr, ...) @die(ptr noundef @.str.4) #11
  unreachable

47:                                               ; preds = %41
  %48 = load ptr, ptr %12, align 8, !tbaa !11
  %49 = load ptr, ptr %10, align 8, !tbaa !11
  %50 = call i64 @strlen(ptr noundef %49) #12
  %51 = getelementptr inbounds nuw i8, ptr %48, i64 %50
  %52 = call ptr @strvec_push(ptr noundef %9, ptr noundef %51)
  store i32 0, ptr %13, align 4
  br label %53

53:                                               ; preds = %47, %35
  call void @llvm.lifetime.end.p0(i64 8, ptr %12) #10
  %54 = load i32, ptr %13, align 4
  switch i32 %54, label %66 [
    i32 0, label %55
    i32 2, label %56
  ]

55:                                               ; preds = %53
  br label %31

56:                                               ; preds = %53
  %57 = getelementptr inbounds nuw %struct.strvec, ptr %9, i32 0, i32 1
  %58 = load i64, ptr %57, align 8, !tbaa !15
  %59 = trunc i64 %58 to i32
  %60 = getelementptr inbounds nuw %struct.strvec, ptr %9, i32 0, i32 0
  %61 = load ptr, ptr %60, align 8, !tbaa !18
  %62 = load ptr, ptr %7, align 8, !tbaa !11
  %63 = load ptr, ptr @the_repository, align 8, !tbaa !13
  %64 = call i32 @write_archive(i32 noundef %59, ptr noundef %61, ptr noundef %62, ptr noundef %63, ptr noundef null, i32 noundef 1)
  store i32 %64, ptr %11, align 4, !tbaa !4
  call void @strvec_clear(ptr noundef %9)
  %65 = load i32, ptr %11, align 4, !tbaa !4
  store i32 1, ptr %13, align 4
  call void @llvm.lifetime.end.p0(i64 4, ptr %11) #10
  call void @llvm.lifetime.end.p0(i64 8, ptr %10) #10
  call void @llvm.lifetime.end.p0(i64 24, ptr %9) #10
  ret i32 %65

66:                                               ; preds = %53
  unreachable
}