; Function Attrs: nounwind uwtable
define dso_local i32 @cmd_upload_archive_writer(i32 noundef %0, ptr noundef %1, ptr noundef %2, ptr noundef readnone captures(none) %3) local_unnamed_addr #0 {
  %5 = alloca %struct.strvec, align 8
  call void @llvm.lifetime.start.p0(i64 24, ptr nonnull %5) #10
  call void @llvm.memcpy.p0.p0.i64(ptr noundef nonnull align 8 dereferenceable(24) %5, ptr noundef nonnull align 8 dereferenceable(24) @__const.cmd_upload_archive_writer.sent_argv, i64 24, i1 false)
  tail call void @show_usage_if_asked(i32 noundef %0, ptr noundef %1, ptr noundef nonnull @upload_archive_usage) #10
  %.not = icmp eq i32 %0, 2
  br i1 %.not, label %7, label %6

6:                                                ; preds = %4
  tail call void @usage(ptr noundef nonnull @upload_archive_usage) #11
  unreachable

7:                                                ; preds = %4
  %8 = getelementptr inbounds nuw i8, ptr %1, i64 8
  %9 = load ptr, ptr %8, align 8, !tbaa !4
  %10 = tail call ptr @enter_repo(ptr noundef %9, i32 noundef 0) #10
  %.not13 = icmp eq ptr %10, null
  br i1 %.not13, label %11, label %13

11:                                               ; preds = %7
  %12 = load ptr, ptr %8, align 8, !tbaa !4
  tail call void (ptr, ...) @die(ptr noundef nonnull @.str.1, ptr noundef %12) #11
  unreachable

13:                                               ; preds = %7
  tail call void @init_archivers() #10
  %14 = call ptr @strvec_push(ptr noundef nonnull %5, ptr noundef nonnull @.str.2) #10
  %15 = call ptr @packet_read_line(i32 noundef 0, ptr noundef null) #10
  %.not1418 = icmp eq ptr %15, null
  br i1 %.not1418, label %._crit_edge, label %.lr.ph

.lr.ph:                                           ; preds = %13
  %16 = getelementptr inbounds nuw i8, ptr %5, i64 8
  br label %17

17:                                               ; preds = %.lr.ph, %25
  %18 = phi ptr [ %15, %.lr.ph ], [ %28, %25 ]
  %19 = load i64, ptr %16, align 8, !tbaa !9
  %20 = icmp ugt i64 %19, 64
  br i1 %20, label %21, label %22

21:                                               ; preds = %17
  call void (ptr, ...) @die(ptr noundef nonnull @.str.3, i32 noundef 63) #11
  unreachable

22:                                               ; preds = %17
  %23 = call i32 @starts_with(ptr noundef nonnull %18, ptr noundef nonnull @.str) #10
  %.not15 = icmp eq i32 %23, 0
  br i1 %.not15, label %24, label %25

24:                                               ; preds = %22
  call void (ptr, ...) @die(ptr noundef nonnull @.str.4) #11
  unreachable

25:                                               ; preds = %22
  %26 = getelementptr inbounds nuw i8, ptr %18, i64 9
  %27 = call ptr @strvec_push(ptr noundef nonnull %5, ptr noundef nonnull %26) #10
  %28 = call ptr @packet_read_line(i32 noundef 0, ptr noundef null) #10
  %.not14 = icmp eq ptr %28, null
  br i1 %.not14, label %._crit_edge, label %17

._crit_edge:                                      ; preds = %25, %13
  %29 = getelementptr inbounds nuw i8, ptr %5, i64 8
  %30 = load i64, ptr %29, align 8, !tbaa !9
  %31 = trunc i64 %30 to i32
  %32 = load ptr, ptr %5, align 8, !tbaa !13
  %33 = load ptr, ptr @the_repository, align 8, !tbaa !14
  %34 = call i32 @write_archive(i32 noundef %31, ptr noundef %32, ptr noundef %2, ptr noundef %33, ptr noundef null, i32 noundef 1) #10
  call void @strvec_clear(ptr noundef nonnull %5) #10
  call void @llvm.lifetime.end.p0(i64 24, ptr nonnull %5) #10
  ret i32 %34
}